target datalayout = "e-m:e-p270:32:32-p271:32:32-p272:64:64-i64:64-i128:128-f80:128-n8:16:32:64-S128"
target triple = "x86_64-pc-linux-gnu"

%"class.std::__cxx11::basic_string" = type { %"struct.std::__cxx11::basic_string<char>::_Alloc_hider", i64, %union.anon }
%"struct.std::__cxx11::basic_string<char>::_Alloc_hider" = type { ptr }
%union.anon = type { i64, [8 x i8] }

; Function Attrs: inlinehint mustprogress nounwind uwtable
define linkonce_odr hidden noundef i32 @_ZN7testing8internal5posix10StrCaseCmpEPKcS3_(ptr noundef %0, ptr noundef %1) #4 comdat {
  %3 = alloca ptr, align 8
  %4 = alloca ptr, align 8
  store ptr %0, ptr %3, align 8, !tbaa !15
  store ptr %1, ptr %4, align 8, !tbaa !15
  %5 = load ptr, ptr %3, align 8, !tbaa !15
  %6 = load ptr, ptr %4, align 8, !tbaa !15
  %7 = call i32 @strcasecmp(ptr noundef %5, ptr noundef %6) #23
  ret i32 %7
}

; Function Attrs: mustprogress nounwind uwtable
define available_externally noundef ptr @_ZNKSt7__cxx1112basic_stringIcSt11char_traitsIcESaIcEE7_M_dataEv(ptr noundef nonnull align 8 dereferenceable(32) %0) #7 align 2 {
  %2 = alloca ptr, align 8
  store ptr %0, ptr %2, align 8, !tbaa !21
  %3 = load ptr, ptr %2, align 8
  %4 = getelementptr inbounds nuw %"class.std::__cxx11::basic_string", ptr %3, i32 0, i32 0
  %5 = getelementptr inbounds nuw %"struct.std::__cxx11::basic_string<char>::_Alloc_hider", ptr %4, i32 0, i32 0
  %6 = load ptr, ptr %5, align 8, !tbaa !820
  ret ptr %6
}

; Function Attrs: mustprogress uwtable
define noundef zeroext i1 @_ZN7testing8internal6String28CaseInsensitiveCStringEqualsEPKcS3_(ptr noundef %0, ptr noundef %1) #6 align 2 {
  %3 = alloca i1, align 1
  %4 = alloca ptr, align 8
  %5 = alloca ptr, align 8
  store ptr %0, ptr %4, align 8, !tbaa !15
  store ptr %1, ptr %5, align 8, !tbaa !15
  %6 = load ptr, ptr %4, align 8, !tbaa !15
  %7 = icmp eq ptr %6, null
  br i1 %7, label %8, label %11

8:                                                ; preds = %2
  %9 = load ptr, ptr %5, align 8, !tbaa !15
  %10 = icmp eq ptr %9, null
  store i1 %10, ptr %3, align 1
  br label %20

11:                                               ; preds = %2
  %12 = load ptr, ptr %5, align 8, !tbaa !15
  %13 = icmp eq ptr %12, null
  br i1 %13, label %14, label %15

14:                                               ; preds = %11
  store i1 false, ptr %3, align 1
  br label %20

15:                                               ; preds = %11
  %16 = load ptr, ptr %4, align 8, !tbaa !15
  %17 = load ptr, ptr %5, align 8, !tbaa !15
  %18 = call noundef i32 @_ZN7testing8internal5posix10StrCaseCmpEPKcS3_(ptr noundef %16, ptr noundef %17)
  %19 = icmp eq i32 %18, 0
  store i1 %19, ptr %3, align 1
  br label %20

20:                                               ; preds = %15, %14, %8
  %21 = load i1, ptr %3, align 1
  ret i1 %21
}

; Function Attrs: mustprogress nounwind uwtable
define available_externally noundef ptr @_ZNKSt7__cxx1112basic_stringIcSt11char_traitsIcESaIcEE5c_strEv(ptr noundef nonnull align 8 dereferenceable(32) %0) #7 align 2 {
  %2 = alloca ptr, align 8
  store ptr %0, ptr %2, align 8, !tbaa !21
  %3 = load ptr, ptr %2, align 8
  %4 = call noundef ptr @_ZNKSt7__cxx1112basic_stringIcSt11char_traitsIcESaIcEE7_M_dataEv(ptr noundef nonnull align 8 dereferenceable(32) %3)
  ret ptr %4
}

; Function Attrs: mustprogress nounwind uwtable
define available_externally noundef i64 @_ZNKSt7__cxx1112basic_stringIcSt11char_traitsIcESaIcEE6lengthEv(ptr noundef nonnull align 8 dereferenceable(32) %0) #7 align 2 {
  %2 = alloca ptr, align 8
  store ptr %0, ptr %2, align 8, !tbaa !21
  %3 = load ptr, ptr %2, align 8
  %4 = getelementptr inbounds nuw %"class.std::__cxx11::basic_string", ptr %3, i32 0, i32 1
  %5 = load i64, ptr %4, align 8, !tbaa !82
  ret i64 %5
}

; Function Attrs: mustprogress uwtable
define noundef zeroext i1 @_ZN7testing8internal6String23EndsWithCaseInsensitiveERKNSt7__cxx1112basic_stringIcSt11char_traitsIcESaIcEEES9_(ptr noundef nonnull align 8 dereferenceable(32) %0, ptr noundef nonnull align 8 dereferenceable(32) %1) #6 align 2 {
  %3 = alloca ptr, align 8
  %4 = alloca ptr, align 8
  %5 = alloca i64, align 8
  %6 = alloca i64, align 8
  store ptr %0, ptr %3, align 8, !tbaa !21
  store ptr %1, ptr %4, align 8, !tbaa !21
  call void @llvm.lifetime.start.p0(i64 8, ptr %5) #3
  %7 = load ptr, ptr %3, align 8, !tbaa !21
  %8 = call noundef i64 @_ZNKSt7__cxx1112basic_stringIcSt11char_traitsIcESaIcEE6lengthEv(ptr noundef nonnull align 8 dereferenceable(32) %7) #3
  store i64 %8, ptr %5, align 8, !tbaa !78
  call void @llvm.lifetime.start.p0(i64 8, ptr %6) #3
  %9 = load ptr, ptr %4, align 8, !tbaa !21
  %10 = call noundef i64 @_ZNKSt7__cxx1112basic_stringIcSt11char_traitsIcESaIcEE6lengthEv(ptr noundef nonnull align 8 dereferenceable(32) %9) #3
  store i64 %10, ptr %6, align 8, !tbaa !78
  %11 = load i64, ptr %5, align 8, !tbaa !78
  %12 = load i64, ptr %6, align 8, !tbaa !78
  %13 = icmp uge i64 %11, %12
  br i1 %13, label %14, label %25

14:                                               ; preds = %2
  %15 = load ptr, ptr %3, align 8, !tbaa !21
  %16 = call noundef ptr @_ZNKSt7__cxx1112basic_stringIcSt11char_traitsIcESaIcEE5c_strEv(ptr noundef nonnull align 8 dereferenceable(32) %15) #3
  %17 = load i64, ptr %5, align 8, !tbaa !78
  %18 = getelementptr inbounds nuw i8, ptr %16, i64 %17
  %19 = load i64, ptr %6, align 8, !tbaa !78
  %20 = sub i64 0, %19
  %21 = getelementptr inbounds i8, ptr %18, i64 %20
  %22 = load ptr, ptr %4, align 8, !tbaa !21
  %23 = call noundef ptr @_ZNKSt7__cxx1112basic_stringIcSt11char_traitsIcESaIcEE5c_strEv(ptr noundef nonnull align 8 dereferenceable(32) %22) #3
  %24 = call noundef zeroext i1 @_ZN7testing8internal6String28CaseInsensitiveCStringEqualsEPKcS3_(ptr noundef %21, ptr noundef %23)
  br label %25

25:                                               ; preds = %14, %2
  %26 = phi i1 [ false, %2 ], [ %24, %14 ]
  call void @llvm.lifetime.end.p0(i64 8, ptr %6) #3
  call void @llvm.lifetime.end.p0(i64 8, ptr %5) #3
  ret i1 %26
}